target datalayout = "e-m:e-p270:32:32-p271:32:32-p272:64:64-i64:64-i128:128-f80:128-n8:16:32:64-S128"
target triple = "x86_64-pc-linux-gnu"

%struct.AVPacket = type { ptr, i64, i64, ptr, i32, i32, i32, ptr, i32, i64, i64, ptr, ptr, %struct.AVRational }
%struct.AVRational = type { i32, i32 }
%struct.MpegTSContext = type { ptr, ptr, i32, i64, i32, i32, i32, i64, i64, i32, ptr, i64, i32, i32, i32, i32, i32, i32, i32, i32, i32, ptr, [8192 x i8], [8192 x ptr], i32, ptr, [32 x ptr] }
%struct.MpegTSFilter = type { i32, i32, i32, i64, i32, i32, %union.anon.0 }
%union.anon.0 = type { %struct.MpegTSSectionFilter }
%struct.MpegTSSectionFilter = type { i32, i32, i32, i32, i32, ptr, i8, ptr, ptr }
%struct.AVProgram = type { i32, i32, i32, ptr, i32, ptr, i32, i32, i32, i32, i64, i64, i64, i32 }

; Function Attrs: nounwind uwtable
define internal void @new_data_packet(ptr noundef %0, i32 noundef %1, ptr noundef %2) #0 {
  %4 = alloca ptr, align 8
  %5 = alloca i32, align 4
  %6 = alloca ptr, align 8
  store ptr %0, ptr %4, align 8, !tbaa !16
  store i32 %1, ptr %5, align 4, !tbaa !11
  store ptr %2, ptr %6, align 8, !tbaa !164
  %7 = load ptr, ptr %6, align 8, !tbaa !164
  call void @av_packet_unref(ptr noundef %7)
  %8 = load ptr, ptr %4, align 8, !tbaa !16
  %9 = load ptr, ptr %6, align 8, !tbaa !164
  %10 = getelementptr inbounds nuw %struct.AVPacket, ptr %9, i32 0, i32 3
  store ptr %8, ptr %10, align 8, !tbaa !202
  %11 = load i32, ptr %5, align 4, !tbaa !11
  %12 = load ptr, ptr %6, align 8, !tbaa !164
  %13 = getelementptr inbounds nuw %struct.AVPacket, ptr %12, i32 0, i32 4
  store i32 %11, ptr %13, align 8, !tbaa !192
  ret void
}

; Function Attrs: nounwind uwtable
define internal void @scte_data_cb(ptr noundef %0, ptr noundef %1, i32 noundef %2) #0 {
  %4 = alloca ptr, align 8
  %5 = alloca ptr, align 8
  %6 = alloca i32, align 4
  %7 = alloca ptr, align 8
  %8 = alloca ptr, align 8
  %9 = alloca i32, align 4
  %10 = alloca i32, align 4
  %11 = alloca ptr, align 8
  store ptr %0, ptr %4, align 8, !tbaa !50
  store ptr %1, ptr %5, align 8, !tbaa !16
  store i32 %2, ptr %6, align 4, !tbaa !11
  call void @llvm.lifetime.start.p0(i64 8, ptr %7) #12
  store ptr null, ptr %7, align 8, !tbaa !125
  call void @llvm.lifetime.start.p0(i64 8, ptr %8) #12
  %12 = load ptr, ptr %4, align 8, !tbaa !50
  %13 = getelementptr inbounds nuw %struct.MpegTSFilter, ptr %12, i32 0, i32 6
  %14 = getelementptr inbounds nuw %struct.MpegTSSectionFilter, ptr %13, i32 0, i32 8
  %15 = load ptr, ptr %14, align 8, !tbaa !66
  store ptr %15, ptr %8, align 8, !tbaa !20
  call void @llvm.lifetime.start.p0(i64 4, ptr %9) #12
  %16 = load ptr, ptr %8, align 8, !tbaa !20
  %17 = getelementptr inbounds nuw %struct.MpegTSContext, ptr %16, i32 0, i32 1
  %18 = load ptr, ptr %17, align 8, !tbaa !72
  %19 = load ptr, ptr %4, align 8, !tbaa !50
  %20 = getelementptr inbounds nuw %struct.MpegTSFilter, ptr %19, i32 0, i32 0
  %21 = load i32, ptr %20, align 8, !tbaa !134
  %22 = call i32 @ff_find_stream_index(ptr noundef %18, i32 noundef %21)
  store i32 %22, ptr %9, align 4, !tbaa !11
  %23 = load i32, ptr %9, align 4, !tbaa !11
  %24 = icmp slt i32 %23, 0
  br i1 %24, label %25, label %26

25:                                               ; preds = %3
  store i32 1, ptr %10, align 4
  br label %93

26:                                               ; preds = %3
  %27 = load ptr, ptr %8, align 8, !tbaa !20
  %28 = getelementptr inbounds nuw %struct.MpegTSContext, ptr %27, i32 0, i32 10
  %29 = load ptr, ptr %28, align 8, !tbaa !160
  %30 = icmp ne ptr %29, null
  br i1 %30, label %32, label %31

31:                                               ; preds = %26
  store i32 1, ptr %10, align 4
  br label %93

32:                                               ; preds = %26
  %33 = load ptr, ptr %5, align 8, !tbaa !16
  %34 = load i32, ptr %6, align 4, !tbaa !11
  %35 = load ptr, ptr %8, align 8, !tbaa !20
  %36 = getelementptr inbounds nuw %struct.MpegTSContext, ptr %35, i32 0, i32 10
  %37 = load ptr, ptr %36, align 8, !tbaa !160
  call void @new_data_packet(ptr noundef %33, i32 noundef %34, ptr noundef %37)
  %38 = load i32, ptr %9, align 4, !tbaa !11
  %39 = load ptr, ptr %8, align 8, !tbaa !20
  %40 = getelementptr inbounds nuw %struct.MpegTSContext, ptr %39, i32 0, i32 10
  %41 = load ptr, ptr %40, align 8, !tbaa !160
  %42 = getelementptr inbounds nuw %struct.AVPacket, ptr %41, i32 0, i32 5
  store i32 %38, ptr %42, align 4, !tbaa !162
  %43 = load ptr, ptr %8, align 8, !tbaa !20
  %44 = getelementptr inbounds nuw %struct.MpegTSContext, ptr %43, i32 0, i32 1
  %45 = load ptr, ptr %44, align 8, !tbaa !72
  %46 = load i32, ptr %9, align 4, !tbaa !11
  %47 = call ptr @av_find_program_from_stream(ptr noundef %45, ptr noundef null, i32 noundef %46)
  store ptr %47, ptr %7, align 8, !tbaa !125
  %48 = load ptr, ptr %7, align 8, !tbaa !125
  %49 = icmp ne ptr %48, null
  br i1 %49, label %50, label %90

50:                                               ; preds = %32
  %51 = load ptr, ptr %7, align 8, !tbaa !125
  %52 = getelementptr inbounds nuw %struct.AVProgram, ptr %51, i32 0, i32 8
  %53 = load i32, ptr %52, align 8, !tbaa !259
  %54 = icmp ne i32 %53, -1
  br i1 %54, label %55, label %90

55:                                               ; preds = %50
  %56 = load ptr, ptr %7, align 8, !tbaa !125
  %57 = getelementptr inbounds nuw %struct.AVProgram, ptr %56, i32 0, i32 2
  %58 = load i32, ptr %57, align 8, !tbaa !267
  %59 = icmp ne i32 %58, 48
  br i1 %59, label %60, label %90

60:                                               ; preds = %55
  call void @llvm.lifetime.start.p0(i64 8, ptr %11) #12
  %61 = load ptr, ptr %8, align 8, !tbaa !20
  %62 = getelementptr inbounds nuw %struct.MpegTSContext, ptr %61, i32 0, i32 23
  %63 = load ptr, ptr %7, align 8, !tbaa !125
  %64 = getelementptr inbounds nuw %struct.AVProgram, ptr %63, i32 0, i32 8
  %65 = load i32, ptr %64, align 8, !tbaa !259
  %66 = sext i32 %65 to i64
  %67 = getelementptr inbounds [8192 x ptr], ptr %62, i64 0, i64 %66
  %68 = load ptr, ptr %67, align 8, !tbaa !50
  store ptr %68, ptr %11, align 8, !tbaa !50
  %69 = load ptr, ptr %11, align 8, !tbaa !50
  %70 = icmp ne ptr %69, null
  br i1 %70, label %71, label %89

71:                                               ; preds = %60
  %72 = load ptr, ptr %11, align 8, !tbaa !50
  %73 = getelementptr inbounds nuw %struct.MpegTSFilter, ptr %72, i32 0, i32 3
  %74 = load i64, ptr %73, align 8, !tbaa !168
  %75 = icmp ne i64 %74, -1
  br i1 %75, label %76, label %89

76:                                               ; preds = %71
  %77 = load ptr, ptr %11, align 8, !tbaa !50
  %78 = getelementptr inbounds nuw %struct.MpegTSFilter, ptr %77, i32 0, i32 3
  %79 = load i64, ptr %78, align 8, !tbaa !168
  %80 = sdiv i64 %79, 300
  %81 = load ptr, ptr %8, align 8, !tbaa !20
  %82 = getelementptr inbounds nuw %struct.MpegTSContext, ptr %81, i32 0, i32 10
  %83 = load ptr, ptr %82, align 8, !tbaa !160
  %84 = getelementptr inbounds nuw %struct.AVPacket, ptr %83, i32 0, i32 2
  store i64 %80, ptr %84, align 8, !tbaa !198
  %85 = load ptr, ptr %8, align 8, !tbaa !20
  %86 = getelementptr inbounds nuw %struct.MpegTSContext, ptr %85, i32 0, i32 10
  %87 = load ptr, ptr %86, align 8, !tbaa !160
  %88 = getelementptr inbounds nuw %struct.AVPacket, ptr %87, i32 0, i32 1
  store i64 %80, ptr %88, align 8, !tbaa !205
  br label %89

89:                                               ; preds = %76, %71, %60
  call void @llvm.lifetime.end.p0(i64 8, ptr %11) #12
  br label %90

90:                                               ; preds = %89, %55, %50, %32
  %91 = load ptr, ptr %8, align 8, !tbaa !20
  %92 = getelementptr inbounds nuw %struct.MpegTSContext, ptr %91, i32 0, i32 9
  store i32 1, ptr %92, align 8, !tbaa !163
  store i32 0, ptr %10, align 4
  br label %93

93:                                               ; preds = %90, %31, %25
  call void @llvm.lifetime.end.p0(i64 4, ptr %9) #12
  call void @llvm.lifetime.end.p0(i64 8, ptr %8) #12
  call void @llvm.lifetime.end.p0(i64 8, ptr %7) #12
  %94 = load i32, ptr %10, align 4
  switch i32 %94, label %96 [
    i32 0, label %95
    i32 1, label %95
  ]

95:                                               ; preds = %93, %93
  ret void

96:                                               ; preds = %93
  unreachable
}