; Function Attrs: nounwind uwtable
define internal void @scte_data_cb(ptr noundef readonly captures(none) %0, ptr noundef %1, i32 noundef %2) #0 {
  %4 = getelementptr inbounds nuw i8, ptr %0, i64 80
  %5 = load ptr, ptr %4, align 8, !tbaa !9
  %6 = getelementptr inbounds nuw i8, ptr %5, i64 8
  %7 = load ptr, ptr %6, align 8, !tbaa !57
  %8 = load i32, ptr %0, align 8, !tbaa !63
  %9 = tail call i32 @ff_find_stream_index(ptr noundef %7, i32 noundef %8) #12
  %10 = icmp slt i32 %9, 0
  br i1 %10, label %42, label %11

11:                                               ; preds = %3
  %12 = getelementptr inbounds nuw i8, ptr %5, i64 72
  %13 = load ptr, ptr %12, align 8, !tbaa !155
  %.not = icmp eq ptr %13, null
  br i1 %.not, label %42, label %14

14:                                               ; preds = %11
  tail call void @av_packet_unref(ptr noundef nonnull %13) #12
  %15 = getelementptr inbounds nuw i8, ptr %13, i64 24
  store ptr %1, ptr %15, align 8, !tbaa !156
  %16 = getelementptr inbounds nuw i8, ptr %13, i64 32
  store i32 %2, ptr %16, align 8, !tbaa !157
  %17 = load ptr, ptr %12, align 8, !tbaa !155
  %18 = getelementptr inbounds nuw i8, ptr %17, i64 36
  store i32 %9, ptr %18, align 4, !tbaa !159
  %19 = load ptr, ptr %6, align 8, !tbaa !57
  %20 = tail call ptr @av_find_program_from_stream(ptr noundef %19, ptr noundef null, i32 noundef %9) #12
  %.not27 = icmp eq ptr %20, null
  br i1 %.not27, label %40, label %21

21:                                               ; preds = %14
  %22 = getelementptr inbounds nuw i8, ptr %20, i64 48
  %23 = load i32, ptr %22, align 8, !tbaa !228
  %.not28 = icmp eq i32 %23, -1
  br i1 %.not28, label %40, label %24

24:                                               ; preds = %21
  %25 = getelementptr inbounds nuw i8, ptr %20, i64 8
  %26 = load i32, ptr %25, align 8, !tbaa !172
  %.not29 = icmp eq i32 %26, 48
  br i1 %.not29, label %40, label %27

27:                                               ; preds = %24
  %28 = getelementptr inbounds nuw i8, ptr %5, i64 8328
  %29 = sext i32 %23 to i64
  %30 = getelementptr inbounds [8192 x ptr], ptr %28, i64 0, i64 %29
  %31 = load ptr, ptr %30, align 8, !tbaa !46
  %.not30 = icmp eq ptr %31, null
  br i1 %.not30, label %40, label %32

32:                                               ; preds = %27
  %33 = getelementptr inbounds nuw i8, ptr %31, i64 16
  %34 = load i64, ptr %33, align 8, !tbaa !65
  %.not31 = icmp eq i64 %34, -1
  br i1 %.not31, label %40, label %35

35:                                               ; preds = %32
  %36 = sdiv i64 %34, 300
  %37 = load ptr, ptr %12, align 8, !tbaa !155
  %38 = getelementptr inbounds nuw i8, ptr %37, i64 16
  store i64 %36, ptr %38, align 8, !tbaa !202
  %39 = getelementptr inbounds nuw i8, ptr %37, i64 8
  store i64 %36, ptr %39, align 8, !tbaa !209
  br label %40

40:                                               ; preds = %27, %32, %35, %24, %21, %14
  %41 = getelementptr inbounds nuw i8, ptr %5, i64 64
  store i32 1, ptr %41, align 8, !tbaa !160
  br label %42

42:                                               ; preds = %11, %3, %40
  ret void
}